target datalayout = "e-m:e-p270:32:32-p271:32:32-p272:64:64-i64:64-i128:128-f80:128-n8:16:32:64-S128"
target triple = "x86_64-pc-linux-gnu"

; Function Attrs: mustprogress uwtable
define internal noundef i32 @_ZL7foreachP9lua_State(ptr noundef %0) #0 {
  %2 = alloca i32, align 4
  %3 = alloca ptr, align 8
  store ptr %0, ptr %3, align 8, !tbaa !4
  %4 = load ptr, ptr %3, align 8, !tbaa !4
  call void @_Z14luaL_checktypeP9lua_Stateii(ptr noundef %4, i32 noundef 1, i32 noundef 6)
  %5 = load ptr, ptr %3, align 8, !tbaa !4
  call void @_Z14luaL_checktypeP9lua_Stateii(ptr noundef %5, i32 noundef 2, i32 noundef 7)
  %6 = load ptr, ptr %3, align 8, !tbaa !4
  call void @_Z11lua_pushnilP9lua_State(ptr noundef %6)
  br label %7

7:                                                ; preds = %20, %1
  %8 = load ptr, ptr %3, align 8, !tbaa !4
  %9 = call noundef i32 @_Z8lua_nextP9lua_Statei(ptr noundef %8, i32 noundef 1)
  %10 = icmp ne i32 %9, 0
  br i1 %10, label %11, label %22

11:                                               ; preds = %7
  %12 = load ptr, ptr %3, align 8, !tbaa !4
  call void @_Z13lua_pushvalueP9lua_Statei(ptr noundef %12, i32 noundef 2)
  %13 = load ptr, ptr %3, align 8, !tbaa !4
  call void @_Z13lua_pushvalueP9lua_Statei(ptr noundef %13, i32 noundef -3)
  %14 = load ptr, ptr %3, align 8, !tbaa !4
  call void @_Z13lua_pushvalueP9lua_Statei(ptr noundef %14, i32 noundef -3)
  %15 = load ptr, ptr %3, align 8, !tbaa !4
  call void @_Z8lua_callP9lua_Stateii(ptr noundef %15, i32 noundef 2, i32 noundef 1)
  %16 = load ptr, ptr %3, align 8, !tbaa !4
  %17 = call noundef i32 @_Z8lua_typeP9lua_Statei(ptr noundef %16, i32 noundef -1)
  %18 = icmp eq i32 %17, 0
  br i1 %18, label %20, label %19

19:                                               ; preds = %11
  store i32 1, ptr %2, align 4
  br label %23

20:                                               ; preds = %11
  %21 = load ptr, ptr %3, align 8, !tbaa !4
  call void @_Z10lua_settopP9lua_Statei(ptr noundef %21, i32 noundef -3)
  br label %7, !llvm.loop !39

22:                                               ; preds = %7
  store i32 0, ptr %2, align 4
  br label %23

23:                                               ; preds = %22, %19
  %24 = load i32, ptr %2, align 4
  ret i32 %24
}