; Function Attrs: mustprogress uwtable
define internal noundef range(i32 0, 2) i32 @_ZL7foreachP9lua_State(ptr noundef %0) #0 {
  tail call void @_Z14luaL_checktypeP9lua_Stateii(ptr noundef %0, i32 noundef 1, i32 noundef 6)
  tail call void @_Z14luaL_checktypeP9lua_Stateii(ptr noundef %0, i32 noundef 2, i32 noundef 7)
  tail call void @_Z11lua_pushnilP9lua_State(ptr noundef %0)
  %2 = tail call noundef i32 @_Z8lua_nextP9lua_Statei(ptr noundef %0, i32 noundef 1)
  %.not10 = icmp eq i32 %2, 0
  br i1 %.not10, label %._crit_edge, label %.lr.ph

.lr.ph:                                           ; preds = %1, %5
  tail call void @_Z13lua_pushvalueP9lua_Statei(ptr noundef %0, i32 noundef 2)
  tail call void @_Z13lua_pushvalueP9lua_Statei(ptr noundef %0, i32 noundef -3)
  tail call void @_Z13lua_pushvalueP9lua_Statei(ptr noundef %0, i32 noundef -3)
  tail call void @_Z8lua_callP9lua_Stateii(ptr noundef %0, i32 noundef 2, i32 noundef 1)
  %3 = tail call noundef i32 @_Z8lua_typeP9lua_Statei(ptr noundef %0, i32 noundef -1)
  %4 = icmp eq i32 %3, 0
  br i1 %4, label %5, label %._crit_edge

5:                                                ; preds = %.lr.ph
  tail call void @_Z10lua_settopP9lua_Statei(ptr noundef %0, i32 noundef -3)
  %6 = tail call noundef i32 @_Z8lua_nextP9lua_Statei(ptr noundef %0, i32 noundef 1)
  %.not = icmp eq i32 %6, 0
  br i1 %.not, label %._crit_edge, label %.lr.ph, !llvm.loop !33

._crit_edge:                                      ; preds = %.lr.ph, %5, %1
  %.0 = phi i32 [ 0, %1 ], [ 0, %5 ], [ 1, %.lr.ph ]
  ret i32 %.0
}